; Function Attrs: nounwind uwtable
define void @PQreset(ptr noundef %0) local_unnamed_addr #0 {
  %2 = alloca %struct.PGEventConnReset, align 8
  %.not = icmp eq ptr %0, null
  br i1 %.not, label %.loopexit, label %3

3:                                                ; preds = %1
  tail call void @pqClosePGconn(ptr noundef nonnull %0)
  %4 = getelementptr inbounds nuw i8, ptr %0, i64 434
  %5 = load i8, ptr %4, align 2, !range !13, !noundef !14
  %6 = trunc nuw i8 %5 to i1
  br i1 %6, label %7, label %pqConnectDBStart.exit.thread

7:                                                ; preds = %3
  %8 = tail call zeroext i1 @pg_link_canary_is_frontend() #25
  br i1 %8, label %11, label %9

9:                                                ; preds = %7
  %10 = getelementptr inbounds nuw i8, ptr %0, i64 1120
  tail call void @appendPQExpBufferStr(ptr noundef nonnull %10, ptr noundef nonnull @.str.56) #25
  br label %pqConnectDBStart.exit.thread

11:                                               ; preds = %7
  %12 = getelementptr inbounds nuw i8, ptr %0, i64 1020
  store i32 0, ptr %12, align 4
  %13 = getelementptr inbounds nuw i8, ptr %0, i64 1016
  store i32 0, ptr %13, align 8
  %14 = getelementptr inbounds nuw i8, ptr %0, i64 1012
  store i32 0, ptr %14, align 4
  %15 = getelementptr inbounds nuw i8, ptr %0, i64 1036
  store i32 0, ptr %15, align 4
  %16 = getelementptr inbounds nuw i8, ptr %0, i64 344
  %17 = load i8, ptr %16, align 8, !range !13, !noundef !14
  %18 = trunc nuw i8 %17 to i1
  br i1 %18, label %23, label %19

19:                                               ; preds = %11
  %20 = getelementptr inbounds nuw i8, ptr %0, i64 476
  store i32 -1, ptr %20, align 4
  %21 = getelementptr inbounds nuw i8, ptr %0, i64 877
  store i8 1, ptr %21, align 1
  %22 = getelementptr inbounds nuw i8, ptr %0, i64 876
  store i8 0, ptr %22, align 4
  br label %23

23:                                               ; preds = %19, %11
  %24 = getelementptr inbounds nuw i8, ptr %0, i64 416
  store i32 8, ptr %24, align 8
  %25 = getelementptr inbounds nuw i8, ptr %0, i64 868
  %26 = load i32, ptr %25, align 4
  %27 = icmp eq i32 %26, 6
  br i1 %27, label %28, label %29

28:                                               ; preds = %23
  store i32 5, ptr %25, align 4
  br label %29

29:                                               ; preds = %28, %23
  %30 = tail call i32 @PQconnectPoll(ptr noundef nonnull %0)
  %31 = icmp eq i32 %30, 2
  br i1 %31, label %pqConnectDBStart.exit, label %pqConnectDBStart.exit.thread

pqConnectDBStart.exit.thread:                     ; preds = %3, %9, %29
  tail call void @pqDropConnection(ptr noundef nonnull %0, i1 noundef zeroext true)
  %32 = getelementptr inbounds nuw i8, ptr %0, i64 416
  store i32 1, ptr %32, align 8
  br label %.loopexit

pqConnectDBStart.exit:                            ; preds = %29
  %33 = tail call i32 @pqConnectDBComplete(ptr noundef nonnull %0)
  %.not13 = icmp eq i32 %33, 0
  br i1 %.not13, label %.loopexit, label %.preheader

.preheader:                                       ; preds = %pqConnectDBStart.exit
  %34 = getelementptr inbounds nuw i8, ptr %0, i64 408
  %35 = load i32, ptr %34, align 8
  %36 = icmp sgt i32 %35, 0
  br i1 %36, label %.lr.ph, label %.loopexit

.lr.ph:                                           ; preds = %.preheader
  %37 = getelementptr inbounds nuw i8, ptr %0, i64 400
  br label %38

38:                                               ; preds = %.lr.ph, %38
  %indvars.iv = phi i64 [ 0, %.lr.ph ], [ %indvars.iv.next, %38 ]
  call void @llvm.lifetime.start.p0(i64 8, ptr nonnull %2) #25
  store ptr %0, ptr %2, align 8
  %39 = load ptr, ptr %37, align 8
  %40 = getelementptr inbounds nuw %struct.PGEvent, ptr %39, i64 %indvars.iv
  %41 = load ptr, ptr %40, align 8
  %42 = getelementptr inbounds nuw i8, ptr %40, i64 16
  %43 = load ptr, ptr %42, align 8
  %44 = call i32 %41(i32 noundef 1, ptr noundef nonnull %2, ptr noundef %43) #25
  call void @llvm.lifetime.end.p0(i64 8, ptr nonnull %2) #25
  %indvars.iv.next = add nuw nsw i64 %indvars.iv, 1
  %45 = load i32, ptr %34, align 8
  %46 = sext i32 %45 to i64
  %47 = icmp slt i64 %indvars.iv.next, %46
  br i1 %47, label %38, label %.loopexit, !llvm.loop !38

.loopexit:                                        ; preds = %38, %.preheader, %pqConnectDBStart.exit.thread, %pqConnectDBStart.exit, %1
  ret void
}